target datalayout = "e-m:e-p270:32:32-p271:32:32-p272:64:64-i64:64-i128:128-f80:128-n8:16:32:64-S128"
target triple = "x86_64-pc-linux-gnu"

%"class.marisa::grimoire::trie::LoudsTrie" = type { %"class.marisa::grimoire::vector::BitVector", %"class.marisa::grimoire::vector::BitVector", %"class.marisa::grimoire::vector::BitVector", %"class.marisa::grimoire::vector::Vector.4", %"class.marisa::grimoire::vector::FlatVector", %"class.marisa::grimoire::trie::Tail", %"class.marisa::scoped_ptr", %"class.marisa::grimoire::vector::Vector.8", i64, i64, %"class.marisa::grimoire::trie::Config", %"class.marisa::grimoire::io::Mapper" }
%"class.marisa::grimoire::vector::BitVector" = type { %"class.marisa::grimoire::vector::Vector", i64, i64, %"class.marisa::grimoire::vector::Vector.0", %"class.marisa::grimoire::vector::Vector.2", %"class.marisa::grimoire::vector::Vector.2" }
%"class.marisa::grimoire::vector::Vector" = type <{ %"class.marisa::scoped_array", ptr, ptr, i64, i64, i8, [7 x i8] }>
%"class.marisa::scoped_array" = type { ptr }
%"class.marisa::grimoire::vector::Vector.0" = type <{ %"class.marisa::scoped_array", ptr, ptr, i64, i64, i8, [7 x i8] }>
%"class.marisa::grimoire::vector::Vector.2" = type <{ %"class.marisa::scoped_array", ptr, ptr, i64, i64, i8, [7 x i8] }>
%"class.marisa::grimoire::vector::Vector.4" = type <{ %"class.marisa::scoped_array", ptr, ptr, i64, i64, i8, [7 x i8] }>
%"class.marisa::grimoire::vector::FlatVector" = type { %"class.marisa::grimoire::vector::Vector", i64, i32, i64 }
%"class.marisa::grimoire::trie::Tail" = type { %"class.marisa::grimoire::vector::Vector.6", %"class.marisa::grimoire::vector::BitVector" }
%"class.marisa::grimoire::vector::Vector.6" = type <{ %"class.marisa::scoped_array", ptr, ptr, i64, i64, i8, [7 x i8] }>
%"class.marisa::scoped_ptr" = type { ptr }
%"class.marisa::grimoire::vector::Vector.8" = type <{ %"class.marisa::scoped_array", ptr, ptr, i64, i64, i8, [7 x i8] }>
%"class.marisa::grimoire::trie::Config" = type <{ i64, i32, i32, i32, [4 x i8] }>
%"class.marisa::grimoire::io::Mapper" = type <{ ptr, ptr, i64, i64, i32, [4 x i8] }>
%"class.marisa::grimoire::trie::Cache" = type { i32, i32, %"union.marisa::grimoire::trie::Cache::Union" }
%"union.marisa::grimoire::trie::Cache::Union" = type { i32 }

; Function Attrs: mustprogress nounwind uwtable
define linkonce_odr noundef nonnull align 8 dereferenceable(8) ptr @_ZNK6marisa8grimoire6vector6VectorImEixEm(ptr noundef nonnull align 8 dereferenceable(41) %0, i64 noundef %1) #5 comdat align 2 {
  %3 = alloca ptr, align 8
  %4 = alloca i64, align 8
  store ptr %0, ptr %3, align 8
  store i64 %1, ptr %4, align 8
  %5 = load ptr, ptr %3, align 8
  %6 = getelementptr inbounds %"class.marisa::grimoire::vector::Vector", ptr %5, i32 0, i32 2
  %7 = load ptr, ptr %6, align 8
  %8 = load i64, ptr %4, align 8
  %9 = getelementptr inbounds i64, ptr %7, i64 %8
  ret ptr %9
}

; Function Attrs: mustprogress nounwind uwtable
define linkonce_odr void @_ZN6marisa8grimoire4trie5Cache9set_childEm(ptr noundef nonnull align 4 dereferenceable(12) %0, i64 noundef %1) #5 comdat align 2 {
  %3 = alloca ptr, align 8
  %4 = alloca i64, align 8
  store ptr %0, ptr %3, align 8
  store i64 %1, ptr %4, align 8
  %5 = load ptr, ptr %3, align 8
  %6 = load i64, ptr %4, align 8
  %7 = trunc i64 %6 to i32
  %8 = getelementptr inbounds %"class.marisa::grimoire::trie::Cache", ptr %5, i32 0, i32 1
  store i32 %7, ptr %8, align 4
  ret void
}

; Function Attrs: mustprogress nounwind uwtable
define linkonce_odr void @_ZN6marisa8grimoire4trie5Cache10set_parentEm(ptr noundef nonnull align 4 dereferenceable(12) %0, i64 noundef %1) #5 comdat align 2 {
  %3 = alloca ptr, align 8
  %4 = alloca i64, align 8
  store ptr %0, ptr %3, align 8
  store i64 %1, ptr %4, align 8
  %5 = load ptr, ptr %3, align 8
  %6 = load i64, ptr %4, align 8
  %7 = trunc i64 %6 to i32
  %8 = getelementptr inbounds %"class.marisa::grimoire::trie::Cache", ptr %5, i32 0, i32 0
  store i32 %7, ptr %8, align 4
  ret void
}

; Function Attrs: mustprogress nounwind uwtable
define linkonce_odr void @_ZN6marisa8grimoire4trie5Cache9set_extraEm(ptr noundef nonnull align 4 dereferenceable(12) %0, i64 noundef %1) #5 comdat align 2 {
  %3 = alloca ptr, align 8
  %4 = alloca i64, align 8
  store ptr %0, ptr %3, align 8
  store i64 %1, ptr %4, align 8
  %5 = load ptr, ptr %3, align 8
  %6 = getelementptr inbounds %"class.marisa::grimoire::trie::Cache", ptr %5, i32 0, i32 2
  %7 = load i32, ptr %6, align 4
  %8 = and i32 %7, 255
  %9 = zext i32 %8 to i64
  %10 = load i64, ptr %4, align 8
  %11 = shl i64 %10, 8
  %12 = or i64 %9, %11
  %13 = trunc i64 %12 to i32
  %14 = getelementptr inbounds %"class.marisa::grimoire::trie::Cache", ptr %5, i32 0, i32 2
  store i32 %13, ptr %14, align 4
  ret void
}

; Function Attrs: mustprogress nounwind uwtable
define linkonce_odr noundef i32 @_ZNK6marisa8grimoire6vector10FlatVectorixEm(ptr noundef nonnull align 8 dereferenceable(72) %0, i64 noundef %1) #5 comdat align 2 {
  %3 = alloca i32, align 4
  %4 = alloca ptr, align 8
  %5 = alloca i64, align 8
  %6 = alloca i64, align 8
  %7 = alloca i64, align 8
  %8 = alloca i64, align 8
  store ptr %0, ptr %4, align 8
  store i64 %1, ptr %5, align 8
  %9 = load ptr, ptr %4, align 8
  %10 = load i64, ptr %5, align 8
  %11 = getelementptr inbounds %"class.marisa::grimoire::vector::FlatVector", ptr %9, i32 0, i32 1
  %12 = load i64, ptr %11, align 8
  %13 = mul i64 %10, %12
  store i64 %13, ptr %6, align 8
  %14 = load i64, ptr %6, align 8
  %15 = udiv i64 %14, 64
  store i64 %15, ptr %7, align 8
  %16 = load i64, ptr %6, align 8
  %17 = urem i64 %16, 64
  store i64 %17, ptr %8, align 8
  %18 = load i64, ptr %8, align 8
  %19 = getelementptr inbounds %"class.marisa::grimoire::vector::FlatVector", ptr %9, i32 0, i32 1
  %20 = load i64, ptr %19, align 8
  %21 = add i64 %18, %20
  %22 = icmp ule i64 %21, 64
  br i1 %22, label %23, label %34

23:                                               ; preds = %2
  %24 = getelementptr inbounds %"class.marisa::grimoire::vector::FlatVector", ptr %9, i32 0, i32 0
  %25 = load i64, ptr %7, align 8
  %26 = call noundef nonnull align 8 dereferenceable(8) ptr @_ZNK6marisa8grimoire6vector6VectorImEixEm(ptr noundef nonnull align 8 dereferenceable(41) %24, i64 noundef %25)
  %27 = load i64, ptr %26, align 8
  %28 = load i64, ptr %8, align 8
  %29 = lshr i64 %27, %28
  %30 = trunc i64 %29 to i32
  %31 = getelementptr inbounds %"class.marisa::grimoire::vector::FlatVector", ptr %9, i32 0, i32 2
  %32 = load i32, ptr %31, align 8
  %33 = and i32 %30, %32
  store i32 %33, ptr %3, align 4
  br label %54

34:                                               ; preds = %2
  %35 = getelementptr inbounds %"class.marisa::grimoire::vector::FlatVector", ptr %9, i32 0, i32 0
  %36 = load i64, ptr %7, align 8
  %37 = call noundef nonnull align 8 dereferenceable(8) ptr @_ZNK6marisa8grimoire6vector6VectorImEixEm(ptr noundef nonnull align 8 dereferenceable(41) %35, i64 noundef %36)
  %38 = load i64, ptr %37, align 8
  %39 = load i64, ptr %8, align 8
  %40 = lshr i64 %38, %39
  %41 = getelementptr inbounds %"class.marisa::grimoire::vector::FlatVector", ptr %9, i32 0, i32 0
  %42 = load i64, ptr %7, align 8
  %43 = add i64 %42, 1
  %44 = call noundef nonnull align 8 dereferenceable(8) ptr @_ZNK6marisa8grimoire6vector6VectorImEixEm(ptr noundef nonnull align 8 dereferenceable(41) %41, i64 noundef %43)
  %45 = load i64, ptr %44, align 8
  %46 = load i64, ptr %8, align 8
  %47 = sub i64 64, %46
  %48 = shl i64 %45, %47
  %49 = or i64 %40, %48
  %50 = trunc i64 %49 to i32
  %51 = getelementptr inbounds %"class.marisa::grimoire::vector::FlatVector", ptr %9, i32 0, i32 2
  %52 = load i32, ptr %51, align 8
  %53 = and i32 %50, %52
  store i32 %53, ptr %3, align 4
  br label %54

54:                                               ; preds = %34, %23
  %55 = load i32, ptr %3, align 4
  ret i32 %55
}

; Function Attrs: mustprogress uwtable
define linkonce_odr noundef zeroext i1 @_ZNK6marisa8grimoire6vector9BitVectorixEm(ptr noundef nonnull align 8 dereferenceable(208) %0, i64 noundef %1) #4 comdat align 2 {
  %3 = alloca ptr, align 8
  %4 = alloca i64, align 8
  store ptr %0, ptr %3, align 8
  store i64 %1, ptr %4, align 8
  %5 = load ptr, ptr %3, align 8
  %6 = getelementptr inbounds %"class.marisa::grimoire::vector::BitVector", ptr %5, i32 0, i32 0
  %7 = load i64, ptr %4, align 8
  %8 = udiv i64 %7, 64
  %9 = call noundef nonnull align 8 dereferenceable(8) ptr @_ZNK6marisa8grimoire6vector6VectorImEixEm(ptr noundef nonnull align 8 dereferenceable(41) %6, i64 noundef %8)
  %10 = load i64, ptr %9, align 8
  %11 = load i64, ptr %4, align 8
  %12 = urem i64 %11, 64
  %13 = shl i64 1, %12
  %14 = and i64 %10, %13
  %15 = icmp ne i64 %14, 0
  ret i1 %15
}

; Function Attrs: mustprogress nounwind uwtable
define linkonce_odr void @_ZN6marisa8grimoire4trie5Cache8set_baseEh(ptr noundef nonnull align 4 dereferenceable(12) %0, i8 noundef zeroext %1) #5 comdat align 2 {
  %3 = alloca ptr, align 8
  %4 = alloca i8, align 1
  store ptr %0, ptr %3, align 8
  store i8 %1, ptr %4, align 1
  %5 = load ptr, ptr %3, align 8
  %6 = getelementptr inbounds %"class.marisa::grimoire::trie::Cache", ptr %5, i32 0, i32 2
  %7 = load i32, ptr %6, align 4
  %8 = and i32 %7, -256
  %9 = load i8, ptr %4, align 1
  %10 = zext i8 %9 to i32
  %11 = or i32 %8, %10
  %12 = getelementptr inbounds %"class.marisa::grimoire::trie::Cache", ptr %5, i32 0, i32 2
  store i32 %11, ptr %12, align 4
  ret void
}

; Function Attrs: mustprogress nounwind uwtable
define linkonce_odr noundef nonnull align 1 dereferenceable(1) ptr @_ZN6marisa8grimoire6vector6VectorIhEixEm(ptr noundef nonnull align 8 dereferenceable(41) %0, i64 noundef %1) #5 comdat align 2 {
  %3 = alloca ptr, align 8
  %4 = alloca i64, align 8
  store ptr %0, ptr %3, align 8
  store i64 %1, ptr %4, align 8
  %5 = load ptr, ptr %3, align 8
  %6 = getelementptr inbounds %"class.marisa::grimoire::vector::Vector.4", ptr %5, i32 0, i32 1
  %7 = load ptr, ptr %6, align 8
  %8 = load i64, ptr %4, align 8
  %9 = getelementptr inbounds i8, ptr %7, i64 %8
  ret ptr %9
}

; Function Attrs: mustprogress nounwind uwtable
define linkonce_odr noundef i64 @_ZNK6marisa8grimoire4trie5Cache5childEv(ptr noundef nonnull align 4 dereferenceable(12) %0) #5 comdat align 2 {
  %2 = alloca ptr, align 8
  store ptr %0, ptr %2, align 8
  %3 = load ptr, ptr %2, align 8
  %4 = getelementptr inbounds %"class.marisa::grimoire::trie::Cache", ptr %3, i32 0, i32 1
  %5 = load i32, ptr %4, align 4
  %6 = zext i32 %5 to i64
  ret i64 %6
}

; Function Attrs: mustprogress nounwind uwtable
define linkonce_odr noundef nonnull align 4 dereferenceable(12) ptr @_ZN6marisa8grimoire6vector6VectorINS0_4trie5CacheEEixEm(ptr noundef nonnull align 8 dereferenceable(41) %0, i64 noundef %1) #5 comdat align 2 {
  %3 = alloca ptr, align 8
  %4 = alloca i64, align 8
  store ptr %0, ptr %3, align 8
  store i64 %1, ptr %4, align 8
  %5 = load ptr, ptr %3, align 8
  %6 = getelementptr inbounds %"class.marisa::grimoire::vector::Vector.8", ptr %5, i32 0, i32 1
  %7 = load ptr, ptr %6, align 8
  %8 = load i64, ptr %4, align 8
  %9 = getelementptr inbounds %"class.marisa::grimoire::trie::Cache", ptr %7, i64 %8
  ret ptr %9
}

; Function Attrs: mustprogress nounwind uwtable
define linkonce_odr noundef i64 @_ZNK6marisa8grimoire6vector6VectorINS0_4trie5CacheEE4sizeEv(ptr noundef nonnull align 8 dereferenceable(41) %0) #5 comdat align 2 {
  %2 = alloca ptr, align 8
  store ptr %0, ptr %2, align 8
  %3 = load ptr, ptr %2, align 8
  %4 = getelementptr inbounds %"class.marisa::grimoire::vector::Vector.8", ptr %3, i32 0, i32 3
  %5 = load i64, ptr %4, align 8
  ret i64 %5
}

; Function Attrs: mustprogress uwtable
define void @_ZN6marisa8grimoire4trie9LoudsTrie10fill_cacheEv(ptr noundef nonnull align 8 dereferenceable(1136) %0) #4 align 2 {
  %2 = alloca ptr, align 8
  %3 = alloca i64, align 8
  %4 = alloca i64, align 8
  store ptr %0, ptr %2, align 8
  %5 = load ptr, ptr %2, align 8
  store i64 0, ptr %3, align 8
  br label %6

6:                                                ; preds = %50, %1
  %7 = load i64, ptr %3, align 8
  %8 = getelementptr inbounds %"class.marisa::grimoire::trie::LoudsTrie", ptr %5, i32 0, i32 7
  %9 = call noundef i64 @_ZNK6marisa8grimoire6vector6VectorINS0_4trie5CacheEE4sizeEv(ptr noundef nonnull align 8 dereferenceable(41) %8)
  %10 = icmp ult i64 %7, %9
  br i1 %10, label %11, label %53

11:                                               ; preds = %6
  %12 = getelementptr inbounds %"class.marisa::grimoire::trie::LoudsTrie", ptr %5, i32 0, i32 7
  %13 = load i64, ptr %3, align 8
  %14 = call noundef nonnull align 4 dereferenceable(12) ptr @_ZN6marisa8grimoire6vector6VectorINS0_4trie5CacheEEixEm(ptr noundef nonnull align 8 dereferenceable(41) %12, i64 noundef %13)
  %15 = call noundef i64 @_ZNK6marisa8grimoire4trie5Cache5childEv(ptr noundef nonnull align 4 dereferenceable(12) %14)
  store i64 %15, ptr %4, align 8
  %16 = load i64, ptr %4, align 8
  %17 = icmp ne i64 %16, 0
  br i1 %17, label %18, label %42

18:                                               ; preds = %11
  %19 = getelementptr inbounds %"class.marisa::grimoire::trie::LoudsTrie", ptr %5, i32 0, i32 7
  %20 = load i64, ptr %3, align 8
  %21 = call noundef nonnull align 4 dereferenceable(12) ptr @_ZN6marisa8grimoire6vector6VectorINS0_4trie5CacheEEixEm(ptr noundef nonnull align 8 dereferenceable(41) %19, i64 noundef %20)
  %22 = getelementptr inbounds %"class.marisa::grimoire::trie::LoudsTrie", ptr %5, i32 0, i32 3
  %23 = load i64, ptr %4, align 8
  %24 = call noundef nonnull align 1 dereferenceable(1) ptr @_ZN6marisa8grimoire6vector6VectorIhEixEm(ptr noundef nonnull align 8 dereferenceable(41) %22, i64 noundef %23)
  %25 = load i8, ptr %24, align 1
  call void @_ZN6marisa8grimoire4trie5Cache8set_baseEh(ptr noundef nonnull align 4 dereferenceable(12) %21, i8 noundef zeroext %25)
  %26 = getelementptr inbounds %"class.marisa::grimoire::trie::LoudsTrie", ptr %5, i32 0, i32 7
  %27 = load i64, ptr %3, align 8
  %28 = call noundef nonnull align 4 dereferenceable(12) ptr @_ZN6marisa8grimoire6vector6VectorINS0_4trie5CacheEEixEm(ptr noundef nonnull align 8 dereferenceable(41) %26, i64 noundef %27)
  %29 = getelementptr inbounds %"class.marisa::grimoire::trie::LoudsTrie", ptr %5, i32 0, i32 2
  %30 = load i64, ptr %4, align 8
  %31 = call noundef zeroext i1 @_ZNK6marisa8grimoire6vector9BitVectorixEm(ptr noundef nonnull align 8 dereferenceable(208) %29, i64 noundef %30)
  br i1 %31, label %33, label %32

32:                                               ; preds = %18
  br label %39

33:                                               ; preds = %18
  %34 = getelementptr inbounds %"class.marisa::grimoire::trie::LoudsTrie", ptr %5, i32 0, i32 4
  %35 = getelementptr inbounds %"class.marisa::grimoire::trie::LoudsTrie", ptr %5, i32 0, i32 2
  %36 = load i64, ptr %4, align 8
  %37 = call noundef i64 @_ZNK6marisa8grimoire6vector9BitVector5rank1Em(ptr noundef nonnull align 8 dereferenceable(208) %35, i64 noundef %36)
  %38 = call noundef i32 @_ZNK6marisa8grimoire6vector10FlatVectorixEm(ptr noundef nonnull align 8 dereferenceable(72) %34, i64 noundef %37)
  br label %39

39:                                               ; preds = %33, %32
  %40 = phi i32 [ 16777215, %32 ], [ %38, %33 ]
  %41 = zext i32 %40 to i64
  call void @_ZN6marisa8grimoire4trie5Cache9set_extraEm(ptr noundef nonnull align 4 dereferenceable(12) %28, i64 noundef %41)
  br label %49

42:                                               ; preds = %11
  %43 = getelementptr inbounds %"class.marisa::grimoire::trie::LoudsTrie", ptr %5, i32 0, i32 7
  %44 = load i64, ptr %3, align 8
  %45 = call noundef nonnull align 4 dereferenceable(12) ptr @_ZN6marisa8grimoire6vector6VectorINS0_4trie5CacheEEixEm(ptr noundef nonnull align 8 dereferenceable(41) %43, i64 noundef %44)
  call void @_ZN6marisa8grimoire4trie5Cache10set_parentEm(ptr noundef nonnull align 4 dereferenceable(12) %45, i64 noundef 4294967295)
  %46 = getelementptr inbounds %"class.marisa::grimoire::trie::LoudsTrie", ptr %5, i32 0, i32 7
  %47 = load i64, ptr %3, align 8
  %48 = call noundef nonnull align 4 dereferenceable(12) ptr @_ZN6marisa8grimoire6vector6VectorINS0_4trie5CacheEEixEm(ptr noundef nonnull align 8 dereferenceable(41) %46, i64 noundef %47)
  call void @_ZN6marisa8grimoire4trie5Cache9set_childEm(ptr noundef nonnull align 4 dereferenceable(12) %48, i64 noundef 4294967295)
  br label %49

49:                                               ; preds = %42, %39
  br label %50

50:                                               ; preds = %49
  %51 = load i64, ptr %3, align 8
  %52 = add i64 %51, 1
  store i64 %52, ptr %3, align 8
  br label %6, !llvm.loop !45

53:                                               ; preds = %6
  ret void
}