; Function Attrs: mustprogress uwtable
define void @_ZN6marisa8grimoire4trie9LoudsTrie10fill_cacheEv(ptr noundef nonnull align 8 dereferenceable(1136) %0) local_unnamed_addr #3 align 2 {
  %2 = getelementptr inbounds i8, ptr %0, i64 1032
  %3 = load i64, ptr %2, align 8
  %.not14 = icmp eq i64 %3, 0
  br i1 %.not14, label %._crit_edge, label %.lr.ph

.lr.ph:                                           ; preds = %1
  %4 = getelementptr inbounds i8, ptr %0, i64 1016
  %5 = getelementptr inbounds i8, ptr %0, i64 632
  %6 = getelementptr inbounds i8, ptr %0, i64 432
  %7 = getelementptr inbounds i8, ptr %0, i64 416
  %8 = getelementptr inbounds i8, ptr %0, i64 720
  %9 = getelementptr inbounds i8, ptr %0, i64 688
  %10 = getelementptr inbounds i8, ptr %0, i64 728
  br label %11

11:                                               ; preds = %.lr.ph, %64
  %.013 = phi i64 [ 0, %.lr.ph ], [ %65, %64 ]
  %12 = load ptr, ptr %4, align 8
  %13 = getelementptr inbounds %"class.marisa::grimoire::trie::Cache", ptr %12, i64 %.013
  %14 = getelementptr inbounds i8, ptr %13, i64 4
  %15 = load i32, ptr %14, align 4
  %16 = zext i32 %15 to i64
  %.not = icmp eq i32 %15, 0
  br i1 %.not, label %61, label %17

17:                                               ; preds = %11
  %18 = load ptr, ptr %5, align 8
  %19 = getelementptr inbounds i8, ptr %18, i64 %16
  %20 = load i8, ptr %19, align 1
  %21 = getelementptr inbounds i8, ptr %13, i64 8
  %22 = load i32, ptr %21, align 4
  %23 = and i32 %22, -256
  %24 = zext i8 %20 to i32
  %25 = or disjoint i32 %23, %24
  store i32 %25, ptr %21, align 4
  %26 = load ptr, ptr %4, align 8
  %27 = lshr i64 %16, 6
  %28 = load ptr, ptr %6, align 8
  %29 = getelementptr inbounds i64, ptr %28, i64 %27
  %30 = load i64, ptr %29, align 8
  %31 = and i64 %16, 63
  %32 = shl nuw i64 1, %31
  %33 = and i64 %30, %32
  %.not12 = icmp eq i64 %33, 0
  br i1 %.not12, label %54, label %34

34:                                               ; preds = %17
  %35 = tail call noundef i64 @_ZNK6marisa8grimoire6vector9BitVector5rank1Em(ptr noundef nonnull align 8 dereferenceable(208) %7, i64 noundef %16)
  %36 = load i64, ptr %8, align 8
  %37 = mul i64 %36, %35
  %38 = lshr i64 %37, 6
  %39 = and i64 %37, 63
  %40 = add i64 %39, %36
  %41 = icmp ult i64 %40, 65
  %42 = load ptr, ptr %9, align 8
  %43 = getelementptr i64, ptr %42, i64 %38
  %44 = load i64, ptr %43, align 8
  br i1 %41, label %45, label %47

45:                                               ; preds = %34
  %46 = lshr i64 %44, %39
  br label %_ZNK6marisa8grimoire6vector10FlatVectorixEm.exit

47:                                               ; preds = %34
  %48 = getelementptr i8, ptr %43, i64 8
  %49 = load i64, ptr %48, align 8
  %50 = tail call i64 @llvm.fshr.i64(i64 %49, i64 %44, i64 %39)
  br label %_ZNK6marisa8grimoire6vector10FlatVectorixEm.exit

_ZNK6marisa8grimoire6vector10FlatVectorixEm.exit: ; preds = %45, %47
  %.sink.i = phi i64 [ %50, %47 ], [ %46, %45 ]
  %51 = trunc i64 %.sink.i to i32
  %52 = load i32, ptr %10, align 8
  %53 = and i32 %52, %51
  br label %54

54:                                               ; preds = %17, %_ZNK6marisa8grimoire6vector10FlatVectorixEm.exit
  %55 = phi i32 [ %53, %_ZNK6marisa8grimoire6vector10FlatVectorixEm.exit ], [ 16777215, %17 ]
  %56 = getelementptr inbounds %"class.marisa::grimoire::trie::Cache", ptr %26, i64 %.013, i32 2
  %57 = load i32, ptr %56, align 4
  %58 = and i32 %57, 255
  %59 = shl i32 %55, 8
  %60 = or disjoint i32 %58, %59
  store i32 %60, ptr %56, align 4
  br label %64

61:                                               ; preds = %11
  store i32 -1, ptr %13, align 4
  %62 = load ptr, ptr %4, align 8
  %63 = getelementptr inbounds %"class.marisa::grimoire::trie::Cache", ptr %62, i64 %.013, i32 1
  store i32 -1, ptr %63, align 4
  br label %64

64:                                               ; preds = %54, %61
  %65 = add nuw i64 %.013, 1
  %66 = load i64, ptr %2, align 8
  %67 = icmp ult i64 %65, %66
  br i1 %67, label %11, label %._crit_edge, !llvm.loop !37

._crit_edge:                                      ; preds = %64, %1
  ret void
}